; ModuleID = 'source-C-CXX/32/2970.c'
source_filename = "source-C-CXX/32/2970.c"
target datalayout = "e-m:e-p270:32:32-p271:32:32-p272:64:64-i64:64-f80:128-n8:16:32:64-S128"
target triple = "x86_64-pc-linux-gnu"

@.str = private unnamed_addr constant [3 x i8] c"%d\00", align 1
@.str.1 = private unnamed_addr constant [3 x i8] c"%s\00", align 1

; Function Attrs: nofree nounwind sspstrong uwtable
define dso_local i32 @main() local_unnamed_addr #0 {
  %1 = alloca i32, align 4
  %2 = alloca [1000 x [300 x i8]], align 16
  %3 = bitcast i32* %1 to i8*
  call void @llvm.lifetime.start.p0i8(i64 4, i8* nonnull %3) #5
  %4 = call i32 (i8*, ...) @__isoc99_scanf(i8* getelementptr inbounds ([3 x i8], [3 x i8]* @.str, i64 0, i64 0), i32* nonnull %1)
  %5 = getelementptr inbounds [1000 x [300 x i8]], [1000 x [300 x i8]]* %2, i64 0, i64 0, i64 0
  call void @llvm.lifetime.start.p0i8(i64 300000, i8* nonnull %5) #5
  %6 = load i32, i32* %1, align 4, !tbaa !5
  %7 = icmp sgt i32 %6, 0
  br i1 %7, label %10, label %61

8:                                                ; preds = %10
  %9 = icmp sgt i32 %15, 0
  br i1 %9, label %18, label %61

10:                                               ; preds = %0, %10
  %11 = phi i64 [ %14, %10 ], [ 0, %0 ]
  %12 = getelementptr inbounds [1000 x [300 x i8]], [1000 x [300 x i8]]* %2, i64 0, i64 %11
  %13 = call i32 (i8*, ...) @__isoc99_scanf(i8* getelementptr inbounds ([3 x i8], [3 x i8]* @.str.1, i64 0, i64 0), [300 x i8]* nonnull %12)
  %14 = add nuw nsw i64 %11, 1
  %15 = load i32, i32* %1, align 4, !tbaa !5
  %16 = sext i32 %15 to i64
  %17 = icmp slt i64 %14, %16
  br i1 %17, label %10, label %8, !llvm.loop !9

18:                                               ; preds = %8, %55
  %19 = phi i64 [ %57, %55 ], [ 0, %8 ]
  %20 = getelementptr inbounds [1000 x [300 x i8]], [1000 x [300 x i8]]* %2, i64 0, i64 %19, i64 0
  %21 = call i64 @strlen(i8* noundef nonnull %20) #6
  %22 = trunc i64 %21 to i32
  %23 = icmp sgt i32 %22, 0
  br i1 %23, label %24, label %55

24:                                               ; preds = %18
  %25 = shl i64 %21, 32
  %26 = ashr exact i64 %25, 32
  br label %27

27:                                               ; preds = %24, %52
  %28 = phi i64 [ 0, %24 ], [ %53, %52 ]
  %29 = getelementptr inbounds [1000 x [300 x i8]], [1000 x [300 x i8]]* %2, i64 0, i64 %19, i64 %28
  %30 = load i8, i8* %29, align 1, !tbaa !11
  %31 = icmp eq i8 %30, 65
  br i1 %31, label %32, label %35

32:                                               ; preds = %27
  %33 = call i32 @putchar(i32 84)
  %34 = load i8, i8* %29, align 1, !tbaa !11
  br label %35

35:                                               ; preds = %32, %27
  %36 = phi i8 [ %34, %32 ], [ %30, %27 ]
  %37 = icmp eq i8 %36, 84
  br i1 %37, label %38, label %41

38:                                               ; preds = %35
  %39 = call i32 @putchar(i32 65)
  %40 = load i8, i8* %29, align 1, !tbaa !11
  br label %41

41:                                               ; preds = %38, %35
  %42 = phi i8 [ %40, %38 ], [ %36, %35 ]
  %43 = icmp eq i8 %42, 67
  br i1 %43, label %44, label %47

44:                                               ; preds = %41
  %45 = call i32 @putchar(i32 71)
  %46 = load i8, i8* %29, align 1, !tbaa !11
  br label %47

47:                                               ; preds = %44, %41
  %48 = phi i8 [ %46, %44 ], [ %42, %41 ]
  %49 = icmp eq i8 %48, 71
  br i1 %49, label %50, label %52

50:                                               ; preds = %47
  %51 = call i32 @putchar(i32 67)
  br label %52

52:                                               ; preds = %47, %50
  %53 = add nuw nsw i64 %28, 1
  %54 = icmp eq i64 %53, %26
  br i1 %54, label %55, label %27, !llvm.loop !12

55:                                               ; preds = %52, %18
  %56 = call i32 @putchar(i32 10)
  %57 = add nuw nsw i64 %19, 1
  %58 = load i32, i32* %1, align 4, !tbaa !5
  %59 = sext i32 %58 to i64
  %60 = icmp slt i64 %57, %59
  br i1 %60, label %18, label %61, !llvm.loop !13

61:                                               ; preds = %55, %0, %8
  call void @llvm.lifetime.end.p0i8(i64 300000, i8* nonnull %5) #5
  call void @llvm.lifetime.end.p0i8(i64 4, i8* nonnull %3) #5
  ret i32 0
}

; Function Attrs: argmemonly mustprogress nofree nosync nounwind willreturn
declare void @llvm.lifetime.start.p0i8(i64 immarg, i8* nocapture) #1

; Function Attrs: nofree nounwind
declare noundef i32 @__isoc99_scanf(i8* nocapture noundef readonly, ...) local_unnamed_addr #2

; Function Attrs: argmemonly mustprogress nofree nounwind readonly willreturn
declare i64 @strlen(i8* nocapture) local_unnamed_addr #3

; Function Attrs: argmemonly mustprogress nofree nosync nounwind willreturn
declare void @llvm.lifetime.end.p0i8(i64 immarg, i8* nocapture) #1

; Function Attrs: nofree nounwind
declare noundef i32 @putchar(i32 noundef) local_unnamed_addr #4


!llvm.module.flags = !{!0, !1, !2, !3}
!llvm.ident = !{!4}

!0 = !{i32 1, !"wchar_size", i32 4}
!1 = !{i32 7, !"PIC Level", i32 2}
!2 = !{i32 7, !"PIE Level", i32 2}
!3 = !{i32 7, !"uwtable", i32 1}
!4 = !{!"clang version 13.0.0"}
!5 = !{!6, !6, i64 0}
!6 = !{!"int", !7, i64 0}
!7 = !{!"omnipotent char", !8, i64 0}
!8 = !{!"Simple C/C++ TBAA"}
!9 = distinct !{!9, !10}
!10 = !{!"llvm.loop.mustprogress"}
!11 = !{!7, !7, i64 0}
!12 = distinct !{!12, !10}
!13 = distinct !{!13, !10}
